; Function Attrs: nounwind uwtable
define range(i32 -30, 1) i32 @CVodeGetQuad(ptr noundef captures(address_is_null) %0, ptr noundef writeonly captures(none) %1, ptr noundef %2) local_unnamed_addr #0 {
  %4 = icmp eq ptr %0, null
  br i1 %4, label %5, label %6

5:                                                ; preds = %3
  tail call void (ptr, i32, ptr, ptr, ptr, ...) @cvProcessError(ptr noundef null, i32 noundef -21, ptr noundef nonnull @.str, ptr noundef nonnull @.str.89, ptr noundef nonnull @.str.6)
  br label %10

6:                                                ; preds = %3
  %7 = getelementptr inbounds nuw i8, ptr %0, i64 992
  %8 = load double, ptr %7, align 8, !tbaa !212
  store double %8, ptr %1, align 8, !tbaa !49
  %9 = tail call i32 @CVodeGetQuadDky(ptr noundef nonnull %0, double noundef %8, i32 noundef 0, ptr noundef %2)
  br label %10

10:                                               ; preds = %6, %5
  %.0 = phi i32 [ -21, %5 ], [ %9, %6 ]
  ret i32 %.0
}